target datalayout = "e-m:e-p270:32:32-p271:32:32-p272:64:64-i64:64-i128:128-f80:128-n8:16:32:64-S128"
target triple = "x86_64-pc-linux-gnu"

%struct.ThreadNode = type { ptr, i16, i32, ptr, i32, i32, %struct.StepRequest, %struct.InvokeRequest, ptr, %struct.CoLocatedEventInfo_, ptr, ptr, i64, ptr }
%struct.StepRequest = type { i32, i32, i8, i8, i8, i32, i32, ptr, ptr, i32, ptr, ptr, ptr, ptr }
%struct.InvokeRequest = type { i8, i8, i8, i8, i32, i8, i8, ptr, ptr, ptr, ptr, i32, ptr, %union.jvalue, ptr }
%union.jvalue = type { i64 }
%struct.CoLocatedEventInfo_ = type { i32, ptr, ptr, i64 }
%struct.BackendGlobalData = type <{ ptr, ptr, i8, i8, i8, i8, i8, i8, i8, i8, i8, [3 x i8], i32, ptr, ptr, ptr, ptr, ptr, ptr, ptr, ptr, ptr, ptr, ptr, ptr, ptr, i32, %struct.jvmtiCapabilities, i8, [3 x i8], %struct.jvmtiEventCallbacks, ptr, ptr, ptr, ptr, ptr, ptr, ptr, i32, [4 x i8], ptr, i64, i32, [4 x i8], ptr, i32, i32, i8, i8, [6 x i8] }>
%struct.jvmtiCapabilities = type { i64, i64 }
%struct.jvmtiEventCallbacks = type { ptr, ptr, ptr, ptr, ptr, ptr, ptr, ptr, ptr, ptr, ptr, ptr, ptr, ptr, ptr, ptr, ptr, ptr, ptr, ptr, ptr, ptr, ptr, ptr, ptr, ptr, ptr, ptr, ptr, ptr, ptr, ptr, ptr, ptr, ptr, ptr, ptr, ptr, ptr }
%struct.jvmtiInterface_1_ = type { ptr, ptr, ptr, ptr, ptr, ptr, ptr, ptr, ptr, ptr, ptr, ptr, ptr, ptr, ptr, ptr, ptr, ptr, ptr, ptr, ptr, ptr, ptr, ptr, ptr, ptr, ptr, ptr, ptr, ptr, ptr, ptr, ptr, ptr, ptr, ptr, ptr, ptr, ptr, ptr, ptr, ptr, ptr, ptr, ptr, ptr, ptr, ptr, ptr, ptr, ptr, ptr, ptr, ptr, ptr, ptr, ptr, ptr, ptr, ptr, ptr, ptr, ptr, ptr, ptr, ptr, ptr, ptr, ptr, ptr, ptr, ptr, ptr, ptr, ptr, ptr, ptr, ptr, ptr, ptr, ptr, ptr, ptr, ptr, ptr, ptr, ptr, ptr, ptr, ptr, ptr, ptr, ptr, ptr, ptr, ptr, ptr, ptr, ptr, ptr, ptr, ptr, ptr, ptr, ptr, ptr, ptr, ptr, ptr, ptr, ptr, ptr, ptr, ptr, ptr, ptr, ptr, ptr, ptr, ptr, ptr, ptr, ptr, ptr, ptr, ptr, ptr, ptr, ptr, ptr, ptr, ptr, ptr, ptr, ptr, ptr, ptr, ptr, ptr, ptr, ptr, ptr, ptr, ptr, ptr, ptr, ptr, ptr, ptr, ptr, ptr, ptr, ptr, ptr, ptr, ptr }

@.str.5 = private unnamed_addr constant [56 x i8] c"src/jdk.jdwp.agent/share/native/libjdwp/threadControl.c\00", align 1
@gdata = external global ptr, align 8
@.str.7 = private unnamed_addr constant [5 x i8] c"%s()\00", align 1
@.str.13 = private unnamed_addr constant [6 x i8] c"JVMTI\00", align 1
@.str.40 = private unnamed_addr constant [5 x i8] c"MISC\00", align 1
@.str.41 = private unnamed_addr constant [20 x i8] c"thread=%p suspended\00", align 1
@.str.42 = private unnamed_addr constant [14 x i8] c"SuspendThread\00", align 1
@.str.43 = private unnamed_addr constant [38 x i8] c"error != JVMTI_ERROR_THREAD_SUSPENDED\00", align 1

; Function Attrs: nounwind uwtable
define internal i32 @commonSuspendByNode(ptr noundef %0) #0 {
  %2 = alloca ptr, align 8
  %3 = alloca i32, align 4
  store ptr %0, ptr %2, align 8
  %4 = load ptr, ptr @gdata, align 8
  %5 = getelementptr inbounds %struct.BackendGlobalData, ptr %4, i32 0, i32 38
  %6 = load i32, ptr %5, align 8
  %7 = and i32 %6, 8
  %8 = icmp ne i32 %7, 0
  br i1 %8, label %9, label %13

9:                                                ; preds = %1
  call void @log_message_begin(ptr noundef @.str.40, ptr noundef @.str.5, i32 noundef 747)
  %10 = load ptr, ptr %2, align 8
  %11 = getelementptr inbounds %struct.ThreadNode, ptr %10, i32 0, i32 0
  %12 = load ptr, ptr %11, align 8
  call void (ptr, ...) @log_message_end(ptr noundef @.str.41, ptr noundef %12)
  br label %14

13:                                               ; preds = %1
  br label %14

14:                                               ; preds = %13, %9
  %15 = load ptr, ptr @gdata, align 8
  %16 = getelementptr inbounds %struct.BackendGlobalData, ptr %15, i32 0, i32 38
  %17 = load i32, ptr %16, align 8
  %18 = and i32 %17, 4
  %19 = icmp ne i32 %18, 0
  br i1 %19, label %20, label %21

20:                                               ; preds = %14
  call void @log_message_begin(ptr noundef @.str.13, ptr noundef @.str.5, i32 noundef 748)
  call void (ptr, ...) @log_message_end(ptr noundef @.str.7, ptr noundef @.str.42)
  br label %22

21:                                               ; preds = %14
  br label %22

22:                                               ; preds = %21, %20
  %23 = load ptr, ptr @gdata, align 8
  %24 = getelementptr inbounds %struct.BackendGlobalData, ptr %23, i32 0, i32 0
  %25 = load ptr, ptr %24, align 8
  %26 = load ptr, ptr %25, align 8
  %27 = getelementptr inbounds %struct.jvmtiInterface_1_, ptr %26, i32 0, i32 4
  %28 = load ptr, ptr %27, align 8
  %29 = load ptr, ptr @gdata, align 8
  %30 = getelementptr inbounds %struct.BackendGlobalData, ptr %29, i32 0, i32 0
  %31 = load ptr, ptr %30, align 8
  %32 = load ptr, ptr %2, align 8
  %33 = getelementptr inbounds %struct.ThreadNode, ptr %32, i32 0, i32 0
  %34 = load ptr, ptr %33, align 8
  %35 = call i32 %28(ptr noundef %31, ptr noundef %34)
  store i32 %35, ptr %3, align 4
  %36 = load i32, ptr %3, align 4
  %37 = icmp eq i32 %36, 0
  br i1 %37, label %38, label %44

38:                                               ; preds = %22
  %39 = load ptr, ptr %2, align 8
  %40 = getelementptr inbounds %struct.ThreadNode, ptr %39, i32 0, i32 1
  %41 = load i16, ptr %40, align 8
  %42 = and i16 %41, -2
  %43 = or i16 %42, 1
  store i16 %43, ptr %40, align 8
  br label %44

44:                                               ; preds = %38, %22
  br label %45

45:                                               ; preds = %44
  %46 = load ptr, ptr @gdata, align 8
  %47 = icmp ne ptr %46, null
  br i1 %47, label %48, label %58

48:                                               ; preds = %45
  %49 = load ptr, ptr @gdata, align 8
  %50 = getelementptr inbounds %struct.BackendGlobalData, ptr %49, i32 0, i32 3
  %51 = load i8, ptr %50, align 1
  %52 = zext i8 %51 to i32
  %53 = icmp ne i32 %52, 0
  br i1 %53, label %54, label %58

54:                                               ; preds = %48
  %55 = load i32, ptr %3, align 4
  %56 = icmp ne i32 %55, 14
  br i1 %56, label %58, label %57

57:                                               ; preds = %54
  call void @jdiAssertionFailed(ptr noundef @.str.5, i32 noundef 762, ptr noundef @.str.43)
  br label %58

58:                                               ; preds = %57, %54, %48, %45
  br label %59

59:                                               ; preds = %58
  %60 = load i32, ptr %3, align 4
  ret i32 %60
}