; Function Attrs: nounwind uwtable
define internal fastcc i32 @commonSuspendByNode(ptr nocapture noundef %0) unnamed_addr #0 {
  %2 = load ptr, ptr @gdata, align 8
  %3 = getelementptr inbounds i8, ptr %2, i64 528
  %4 = load i32, ptr %3, align 8
  %5 = and i32 %4, 8
  %.not = icmp eq i32 %5, 0
  br i1 %.not, label %8, label %6

6:                                                ; preds = %1
  tail call void @log_message_begin(ptr noundef nonnull @.str.40, ptr noundef nonnull @.str.5, i32 noundef 747) #6
  %7 = load ptr, ptr %0, align 8
  tail call void (ptr, ...) @log_message_end(ptr noundef nonnull @.str.41, ptr noundef %7) #6
  %.pre = load ptr, ptr @gdata, align 8
  %.phi.trans.insert = getelementptr inbounds i8, ptr %.pre, i64 528
  %.pre8 = load i32, ptr %.phi.trans.insert, align 8
  br label %8

8:                                                ; preds = %1, %6
  %9 = phi i32 [ %4, %1 ], [ %.pre8, %6 ]
  %10 = phi ptr [ %2, %1 ], [ %.pre, %6 ]
  %11 = and i32 %9, 4
  %.not6 = icmp eq i32 %11, 0
  br i1 %.not6, label %13, label %12

12:                                               ; preds = %8
  tail call void @log_message_begin(ptr noundef nonnull @.str.13, ptr noundef nonnull @.str.5, i32 noundef 748) #6
  tail call void (ptr, ...) @log_message_end(ptr noundef nonnull @.str.7, ptr noundef nonnull @.str.42) #6
  %.pre9 = load ptr, ptr @gdata, align 8
  br label %13

13:                                               ; preds = %8, %12
  %14 = phi ptr [ %10, %8 ], [ %.pre9, %12 ]
  %15 = load ptr, ptr %14, align 8
  %16 = load ptr, ptr %15, align 8
  %17 = getelementptr inbounds i8, ptr %16, i64 32
  %18 = load ptr, ptr %17, align 8
  %19 = load ptr, ptr %0, align 8
  %20 = tail call i32 %18(ptr noundef nonnull %15, ptr noundef %19) #6
  %21 = icmp eq i32 %20, 0
  br i1 %21, label %22, label %26

22:                                               ; preds = %13
  %23 = getelementptr inbounds i8, ptr %0, i64 8
  %24 = load i16, ptr %23, align 8
  %25 = or i16 %24, 1
  store i16 %25, ptr %23, align 8
  br label %26

26:                                               ; preds = %13, %22
  %27 = load ptr, ptr @gdata, align 8
  %.not7 = icmp eq ptr %27, null
  br i1 %.not7, label %34, label %28

28:                                               ; preds = %26
  %29 = getelementptr inbounds i8, ptr %27, i64 17
  %30 = load i8, ptr %29, align 1
  %31 = icmp eq i8 %30, 0
  %32 = icmp ne i32 %20, 14
  %or.cond = or i1 %32, %31
  br i1 %or.cond, label %34, label %33

33:                                               ; preds = %28
  tail call void @jdiAssertionFailed(ptr noundef nonnull @.str.5, i32 noundef 762, ptr noundef nonnull @.str.43) #6
  br label %34

34:                                               ; preds = %26, %28, %33
  ret i32 %20
}